target datalayout = "e-m:e-p270:32:32-p271:32:32-p272:64:64-i64:64-i128:128-f80:128-n8:16:32:64-S128"
target triple = "x86_64-pc-linux-gnu"

%struct.mbedtls_ssl_tls13_labels_struct = type { [8 x i8], [10 x i8], [11 x i8], [8 x i8], [3 x i8], [2 x i8], [12 x i8], [12 x i8], [11 x i8], [12 x i8], [12 x i8], [11 x i8], [12 x i8], [10 x i8], [10 x i8], [10 x i8], [10 x i8], [7 x i8], [33 x i8], [33 x i8] }
%struct.mbedtls_ssl_key_set = type { [32 x i8], [32 x i8], [16 x i8], [16 x i8], i64, i64 }

; Function Attrs: nounwind uwtable
define internal i32 @ssl_tls13_make_traffic_key(i32 noundef %0, ptr noundef %1, i64 noundef %2, ptr noundef %3, i64 noundef %4, ptr noundef %5, i64 noundef %6) #0 {
  %8 = alloca i32, align 4
  %9 = alloca i32, align 4
  %10 = alloca ptr, align 8
  %11 = alloca i64, align 8
  %12 = alloca ptr, align 8
  %13 = alloca i64, align 8
  %14 = alloca ptr, align 8
  %15 = alloca i64, align 8
  %16 = alloca i32, align 4
  %17 = alloca i32, align 4
  store i32 %0, ptr %9, align 4, !tbaa !3
  store ptr %1, ptr %10, align 8, !tbaa !7
  store i64 %2, ptr %11, align 8, !tbaa !10
  store ptr %3, ptr %12, align 8, !tbaa !7
  store i64 %4, ptr %13, align 8, !tbaa !10
  store ptr %5, ptr %14, align 8, !tbaa !7
  store i64 %6, ptr %15, align 8, !tbaa !10
  call void @llvm.lifetime.start.p0(i64 4, ptr %16) #8
  store i32 -110, ptr %16, align 4, !tbaa !3
  %18 = load i32, ptr %9, align 4, !tbaa !3
  %19 = load ptr, ptr %10, align 8, !tbaa !7
  %20 = load i64, ptr %11, align 8, !tbaa !10
  %21 = load ptr, ptr %12, align 8, !tbaa !7
  %22 = load i64, ptr %13, align 8, !tbaa !10
  %23 = call i32 @mbedtls_ssl_tls13_hkdf_expand_label(i32 noundef %18, ptr noundef %19, i64 noundef %20, ptr noundef getelementptr inbounds nuw (%struct.mbedtls_ssl_tls13_labels_struct, ptr @mbedtls_ssl_tls13_labels, i32 0, i32 4), i64 noundef 3, ptr noundef null, i64 noundef 0, ptr noundef %21, i64 noundef %22)
  store i32 %23, ptr %16, align 4, !tbaa !3
  %24 = load i32, ptr %16, align 4, !tbaa !3
  %25 = icmp ne i32 %24, 0
  br i1 %25, label %26, label %28

26:                                               ; preds = %7
  %27 = load i32, ptr %16, align 4, !tbaa !3
  store i32 %27, ptr %8, align 4
  store i32 1, ptr %17, align 4
  br label %36

28:                                               ; preds = %7
  %29 = load i32, ptr %9, align 4, !tbaa !3
  %30 = load ptr, ptr %10, align 8, !tbaa !7
  %31 = load i64, ptr %11, align 8, !tbaa !10
  %32 = load ptr, ptr %14, align 8, !tbaa !7
  %33 = load i64, ptr %15, align 8, !tbaa !10
  %34 = call i32 @mbedtls_ssl_tls13_hkdf_expand_label(i32 noundef %29, ptr noundef %30, i64 noundef %31, ptr noundef getelementptr inbounds nuw (%struct.mbedtls_ssl_tls13_labels_struct, ptr @mbedtls_ssl_tls13_labels, i32 0, i32 5), i64 noundef 2, ptr noundef null, i64 noundef 0, ptr noundef %32, i64 noundef %33)
  store i32 %34, ptr %16, align 4, !tbaa !3
  %35 = load i32, ptr %16, align 4, !tbaa !3
  store i32 %35, ptr %8, align 4
  store i32 1, ptr %17, align 4
  br label %36

36:                                               ; preds = %28, %26
  call void @llvm.lifetime.end.p0(i64 4, ptr %16) #8
  %37 = load i32, ptr %8, align 4
  ret i32 %37
}

; Function Attrs: nounwind uwtable
define hidden i32 @mbedtls_ssl_tls13_make_traffic_keys(i32 noundef %0, ptr noundef %1, ptr noundef %2, i64 noundef %3, i64 noundef %4, i64 noundef %5, ptr noundef %6) #0 {
  %8 = alloca i32, align 4
  %9 = alloca i32, align 4
  %10 = alloca ptr, align 8
  %11 = alloca ptr, align 8
  %12 = alloca i64, align 8
  %13 = alloca i64, align 8
  %14 = alloca i64, align 8
  %15 = alloca ptr, align 8
  %16 = alloca i32, align 4
  %17 = alloca i32, align 4
  store i32 %0, ptr %9, align 4, !tbaa !3
  store ptr %1, ptr %10, align 8, !tbaa !7
  store ptr %2, ptr %11, align 8, !tbaa !7
  store i64 %3, ptr %12, align 8, !tbaa !10
  store i64 %4, ptr %13, align 8, !tbaa !10
  store i64 %5, ptr %14, align 8, !tbaa !10
  store ptr %6, ptr %15, align 8, !tbaa !15
  call void @llvm.lifetime.start.p0(i64 4, ptr %16) #8
  store i32 0, ptr %16, align 4, !tbaa !3
  %18 = load i32, ptr %9, align 4, !tbaa !3
  %19 = load ptr, ptr %10, align 8, !tbaa !7
  %20 = load i64, ptr %12, align 8, !tbaa !10
  %21 = load ptr, ptr %15, align 8, !tbaa !15
  %22 = getelementptr inbounds nuw %struct.mbedtls_ssl_key_set, ptr %21, i32 0, i32 0
  %23 = getelementptr inbounds [32 x i8], ptr %22, i64 0, i64 0
  %24 = load i64, ptr %13, align 8, !tbaa !10
  %25 = load ptr, ptr %15, align 8, !tbaa !15
  %26 = getelementptr inbounds nuw %struct.mbedtls_ssl_key_set, ptr %25, i32 0, i32 2
  %27 = getelementptr inbounds [16 x i8], ptr %26, i64 0, i64 0
  %28 = load i64, ptr %14, align 8, !tbaa !10
  %29 = call i32 @ssl_tls13_make_traffic_key(i32 noundef %18, ptr noundef %19, i64 noundef %20, ptr noundef %23, i64 noundef %24, ptr noundef %27, i64 noundef %28)
  store i32 %29, ptr %16, align 4, !tbaa !3
  %30 = load i32, ptr %16, align 4, !tbaa !3
  %31 = icmp ne i32 %30, 0
  br i1 %31, label %32, label %34

32:                                               ; preds = %7
  %33 = load i32, ptr %16, align 4, !tbaa !3
  store i32 %33, ptr %8, align 4
  store i32 1, ptr %17, align 4
  br label %58

34:                                               ; preds = %7
  %35 = load i32, ptr %9, align 4, !tbaa !3
  %36 = load ptr, ptr %11, align 8, !tbaa !7
  %37 = load i64, ptr %12, align 8, !tbaa !10
  %38 = load ptr, ptr %15, align 8, !tbaa !15
  %39 = getelementptr inbounds nuw %struct.mbedtls_ssl_key_set, ptr %38, i32 0, i32 1
  %40 = getelementptr inbounds [32 x i8], ptr %39, i64 0, i64 0
  %41 = load i64, ptr %13, align 8, !tbaa !10
  %42 = load ptr, ptr %15, align 8, !tbaa !15
  %43 = getelementptr inbounds nuw %struct.mbedtls_ssl_key_set, ptr %42, i32 0, i32 3
  %44 = getelementptr inbounds [16 x i8], ptr %43, i64 0, i64 0
  %45 = load i64, ptr %14, align 8, !tbaa !10
  %46 = call i32 @ssl_tls13_make_traffic_key(i32 noundef %35, ptr noundef %36, i64 noundef %37, ptr noundef %40, i64 noundef %41, ptr noundef %44, i64 noundef %45)
  store i32 %46, ptr %16, align 4, !tbaa !3
  %47 = load i32, ptr %16, align 4, !tbaa !3
  %48 = icmp ne i32 %47, 0
  br i1 %48, label %49, label %51

49:                                               ; preds = %34
  %50 = load i32, ptr %16, align 4, !tbaa !3
  store i32 %50, ptr %8, align 4
  store i32 1, ptr %17, align 4
  br label %58

51:                                               ; preds = %34
  %52 = load i64, ptr %13, align 8, !tbaa !10
  %53 = load ptr, ptr %15, align 8, !tbaa !15
  %54 = getelementptr inbounds nuw %struct.mbedtls_ssl_key_set, ptr %53, i32 0, i32 4
  store i64 %52, ptr %54, align 8, !tbaa !17
  %55 = load i64, ptr %14, align 8, !tbaa !10
  %56 = load ptr, ptr %15, align 8, !tbaa !15
  %57 = getelementptr inbounds nuw %struct.mbedtls_ssl_key_set, ptr %56, i32 0, i32 5
  store i64 %55, ptr %57, align 8, !tbaa !19
  store i32 0, ptr %8, align 4
  store i32 1, ptr %17, align 4
  br label %58

58:                                               ; preds = %51, %49, %32
  call void @llvm.lifetime.end.p0(i64 4, ptr %16) #8
  %59 = load i32, ptr %8, align 4
  ret i32 %59
}