; Function Attrs: nounwind uwtable
define hidden i32 @mbedtls_ssl_tls13_make_traffic_keys(i32 noundef %0, ptr noundef %1, ptr noundef %2, i64 noundef %3, i64 noundef %4, i64 noundef %5, ptr noundef %6) local_unnamed_addr #0 {
  %8 = tail call i32 @mbedtls_ssl_tls13_hkdf_expand_label(i32 noundef %0, ptr noundef %1, i64 noundef %3, ptr noundef nonnull getelementptr inbounds nuw (i8, ptr @mbedtls_ssl_tls13_labels, i64 37), i64 noundef 3, ptr noundef null, i64 noundef 0, ptr noundef %6, i64 noundef %4)
  %.not.i = icmp eq i32 %8, 0
  br i1 %.not.i, label %ssl_tls13_make_traffic_key.exit, label %ssl_tls13_make_traffic_key.exit.thread

ssl_tls13_make_traffic_key.exit:                  ; preds = %7
  %9 = getelementptr inbounds nuw i8, ptr %6, i64 64
  %10 = tail call i32 @mbedtls_ssl_tls13_hkdf_expand_label(i32 noundef %0, ptr noundef %1, i64 noundef %3, ptr noundef nonnull getelementptr inbounds nuw (i8, ptr @mbedtls_ssl_tls13_labels, i64 40), i64 noundef 2, ptr noundef null, i64 noundef 0, ptr noundef nonnull %9, i64 noundef %5)
  %.not = icmp eq i32 %10, 0
  br i1 %.not, label %11, label %ssl_tls13_make_traffic_key.exit.thread

11:                                               ; preds = %ssl_tls13_make_traffic_key.exit
  %12 = getelementptr inbounds nuw i8, ptr %6, i64 32
  %13 = tail call i32 @mbedtls_ssl_tls13_hkdf_expand_label(i32 noundef %0, ptr noundef %2, i64 noundef %3, ptr noundef nonnull getelementptr inbounds nuw (i8, ptr @mbedtls_ssl_tls13_labels, i64 37), i64 noundef 3, ptr noundef null, i64 noundef 0, ptr noundef nonnull %12, i64 noundef %4)
  %.not.i25 = icmp eq i32 %13, 0
  br i1 %.not.i25, label %ssl_tls13_make_traffic_key.exit27, label %ssl_tls13_make_traffic_key.exit.thread

ssl_tls13_make_traffic_key.exit27:                ; preds = %11
  %14 = getelementptr inbounds nuw i8, ptr %6, i64 80
  %15 = tail call i32 @mbedtls_ssl_tls13_hkdf_expand_label(i32 noundef %0, ptr noundef %2, i64 noundef %3, ptr noundef nonnull getelementptr inbounds nuw (i8, ptr @mbedtls_ssl_tls13_labels, i64 40), i64 noundef 2, ptr noundef null, i64 noundef 0, ptr noundef nonnull %14, i64 noundef %5)
  %.not24 = icmp eq i32 %15, 0
  br i1 %.not24, label %16, label %ssl_tls13_make_traffic_key.exit.thread

16:                                               ; preds = %ssl_tls13_make_traffic_key.exit27
  %17 = getelementptr inbounds nuw i8, ptr %6, i64 96
  store i64 %4, ptr %17, align 8, !tbaa !6
  %18 = getelementptr inbounds nuw i8, ptr %6, i64 104
  store i64 %5, ptr %18, align 8, !tbaa !9
  br label %ssl_tls13_make_traffic_key.exit.thread

ssl_tls13_make_traffic_key.exit.thread:           ; preds = %11, %7, %ssl_tls13_make_traffic_key.exit27, %ssl_tls13_make_traffic_key.exit, %16
  %.0 = phi i32 [ 0, %16 ], [ %10, %ssl_tls13_make_traffic_key.exit ], [ %15, %ssl_tls13_make_traffic_key.exit27 ], [ %8, %7 ], [ %13, %11 ]
  ret i32 %.0
}